; Function Attrs: mustprogress nofree norecurse nosync nounwind willreturn memory(read, inaccessiblemem: none) uwtable
define hidden noundef zeroext i1 @_ZN6google8protobuf8internal6IsNullILi9EEEbPKv(ptr noundef readonly captures(none) %0) local_unnamed_addr #8 {
  %2 = load ptr, ptr %0, align 8, !tbaa !70
  %3 = ptrtoint ptr %2 to i64
  %4 = and i64 %3, -2
  %5 = inttoptr i64 %4 to ptr
  %6 = getelementptr inbounds nuw i8, ptr %5, i64 8
  %7 = load i64, ptr %6, align 8, !tbaa !13
  %8 = icmp eq i64 %7, 0
  ret i1 %8
}